
_send_to_modem:

;keypad.c,9 :: 		void send_to_modem(char *s)   //function to write anything serially
;keypad.c,11 :: 		while(*s)
L_send_to_modem0:
	MOVF       FARG_send_to_modem_s+0, 0
	MOVWF      FSR
	MOVF       INDF+0, 0
	BTFSC      STATUS+0, 2
	GOTO       L_send_to_modem1
;keypad.c,12 :: 		UART1_WRITE(*s++);
	MOVF       FARG_send_to_modem_s+0, 0
	MOVWF      FSR
	MOVF       INDF+0, 0
	MOVWF      FARG_UART1_Write_data_+0
	CALL       _UART1_Write+0
	INCF       FARG_send_to_modem_s+0, 1
	GOTO       L_send_to_modem0
L_send_to_modem1:
;keypad.c,13 :: 		UART1_WRITE(0X0D);
	MOVLW      13
	MOVWF      FARG_UART1_Write_data_+0
	CALL       _UART1_Write+0
;keypad.c,14 :: 		}
L_end_send_to_modem:
	RETURN
; end of _send_to_modem

_send_to_modem1:

;keypad.c,15 :: 		void send_to_modem1(char *s)
;keypad.c,17 :: 		while(*s)
L_send_to_modem12:
	MOVF       FARG_send_to_modem1_s+0, 0
	MOVWF      FSR
	MOVF       INDF+0, 0
	BTFSC      STATUS+0, 2
	GOTO       L_send_to_modem13
;keypad.c,18 :: 		UART1_WRITE(*s++);
	MOVF       FARG_send_to_modem1_s+0, 0
	MOVWF      FSR
	MOVF       INDF+0, 0
	MOVWF      FARG_UART1_Write_data_+0
	CALL       _UART1_Write+0
	INCF       FARG_send_to_modem1_s+0, 1
	GOTO       L_send_to_modem12
L_send_to_modem13:
;keypad.c,19 :: 		}
L_end_send_to_modem1:
	RETURN
; end of _send_to_modem1

_send_sms:

;keypad.c,20 :: 		void send_sms()
;keypad.c,23 :: 		send_to_modem1(mesg);
	MOVLW      _mesg+0
	MOVWF      FARG_send_to_modem1_s+0
	CALL       _send_to_modem1+0
;keypad.c,24 :: 		delay_ms(100);
	MOVLW      130
	MOVWF      R12+0
	MOVLW      221
	MOVWF      R13+0
L_send_sms4:
	DECFSZ     R13+0, 1
	GOTO       L_send_sms4
	DECFSZ     R12+0, 1
	GOTO       L_send_sms4
	NOP
	NOP
;keypad.c,25 :: 		uart1_write(terminator);
	MOVF       _terminator+0, 0
	MOVWF      FARG_UART1_Write_data_+0
	CALL       _UART1_Write+0
;keypad.c,26 :: 		delay_ms(1000);
	MOVLW      6
	MOVWF      R11+0
	MOVLW      19
	MOVWF      R12+0
	MOVLW      173
	MOVWF      R13+0
L_send_sms5:
	DECFSZ     R13+0, 1
	GOTO       L_send_sms5
	DECFSZ     R12+0, 1
	GOTO       L_send_sms5
	DECFSZ     R11+0, 1
	GOTO       L_send_sms5
	NOP
	NOP
;keypad.c,27 :: 		}
L_end_send_sms:
	RETURN
; end of _send_sms

_main:

;keypad.c,28 :: 		void main()
;keypad.c,31 :: 		UART1_INIT(9600);
	MOVLW      25
	MOVWF      SPBRG+0
	BSF        TXSTA+0, 2
	CALL       _UART1_Init+0
;keypad.c,32 :: 		send_to_modem(AT);
	MOVLW      _AT+0
	MOVWF      FARG_send_to_modem_s+0
	CALL       _send_to_modem+0
;keypad.c,33 :: 		delay_ms(2000);
	MOVLW      11
	MOVWF      R11+0
	MOVLW      38
	MOVWF      R12+0
	MOVLW      93
	MOVWF      R13+0
L_main6:
	DECFSZ     R13+0, 1
	GOTO       L_main6
	DECFSZ     R12+0, 1
	GOTO       L_main6
	DECFSZ     R11+0, 1
	GOTO       L_main6
	NOP
	NOP
;keypad.c,34 :: 		send_to_modem(noecho);
	MOVLW      _noecho+0
	MOVWF      FARG_send_to_modem_s+0
	CALL       _send_to_modem+0
;keypad.c,35 :: 		delay_ms(2000);
	MOVLW      11
	MOVWF      R11+0
	MOVLW      38
	MOVWF      R12+0
	MOVLW      93
	MOVWF      R13+0
L_main7:
	DECFSZ     R13+0, 1
	GOTO       L_main7
	DECFSZ     R12+0, 1
	GOTO       L_main7
	DECFSZ     R11+0, 1
	GOTO       L_main7
	NOP
	NOP
;keypad.c,36 :: 		send_to_modem(mode_text);
	MOVLW      _mode_text+0
	MOVWF      FARG_send_to_modem_s+0
	CALL       _send_to_modem+0
;keypad.c,37 :: 		delay_ms(2000);
	MOVLW      11
	MOVWF      R11+0
	MOVLW      38
	MOVWF      R12+0
	MOVLW      93
	MOVWF      R13+0
L_main8:
	DECFSZ     R13+0, 1
	GOTO       L_main8
	DECFSZ     R12+0, 1
	GOTO       L_main8
	DECFSZ     R11+0, 1
	GOTO       L_main8
	NOP
	NOP
;keypad.c,38 :: 		send_to_modem(mobile_no);
	MOVLW      _mobile_no+0
	MOVWF      FARG_send_to_modem_s+0
	CALL       _send_to_modem+0
;keypad.c,39 :: 		delay_ms(2000);
	MOVLW      11
	MOVWF      R11+0
	MOVLW      38
	MOVWF      R12+0
	MOVLW      93
	MOVWF      R13+0
L_main9:
	DECFSZ     R13+0, 1
	GOTO       L_main9
	DECFSZ     R12+0, 1
	GOTO       L_main9
	DECFSZ     R11+0, 1
	GOTO       L_main9
	NOP
	NOP
;keypad.c,40 :: 		send_sms();
	CALL       _send_sms+0
;keypad.c,41 :: 		}
L_end_main:
	GOTO       $+0
; end of _main
