
_main:

;digital_voltmeter.c,25 :: 		void main() {
;digital_voltmeter.c,28 :: 		TRISA=0xFF;
	MOVLW      255
	MOVWF      TRISA+0
;digital_voltmeter.c,31 :: 		ADCON0=0x01;
	MOVLW      1
	MOVWF      ADCON0+0
;digital_voltmeter.c,32 :: 		ADCON1=0x0E;
	MOVLW      14
	MOVWF      ADCON1+0
;digital_voltmeter.c,36 :: 		Lcd_Init();                        // Initialize LCD
	CALL       _Lcd_Init+0
;digital_voltmeter.c,38 :: 		Lcd_Cmd(_LCD_CLEAR);               // Clear display
	MOVLW      1
	MOVWF      FARG_Lcd_Cmd_out_char+0
	CALL       _Lcd_Cmd+0
;digital_voltmeter.c,39 :: 		Lcd_Cmd(_LCD_CURSOR_OFF);          // Cursor off
	MOVLW      12
	MOVWF      FARG_Lcd_Cmd_out_char+0
	CALL       _Lcd_Cmd+0
;digital_voltmeter.c,40 :: 		LCD_Out(1,1,"EMBEDDED");
	MOVLW      1
	MOVWF      FARG_Lcd_Out_row+0
	MOVLW      1
	MOVWF      FARG_Lcd_Out_column+0
	MOVLW      ?lstr1_digital_voltmeter+0
	MOVWF      FARG_Lcd_Out_text+0
	CALL       _Lcd_Out+0
;digital_voltmeter.c,41 :: 		LCD_Out(2,1,"PROJECTS BLOG");
	MOVLW      2
	MOVWF      FARG_Lcd_Out_row+0
	MOVLW      1
	MOVWF      FARG_Lcd_Out_column+0
	MOVLW      ?lstr2_digital_voltmeter+0
	MOVWF      FARG_Lcd_Out_text+0
	CALL       _Lcd_Out+0
;digital_voltmeter.c,42 :: 		Delay_ms(1000);
	MOVLW      6
	MOVWF      R11+0
	MOVLW      19
	MOVWF      R12+0
	MOVLW      173
	MOVWF      R13+0
L_main0:
	DECFSZ     R13+0, 1
	GOTO       L_main0
	DECFSZ     R12+0, 1
	GOTO       L_main0
	DECFSZ     R11+0, 1
	GOTO       L_main0
	NOP
	NOP
;digital_voltmeter.c,44 :: 		do {
L_main1:
;digital_voltmeter.c,45 :: 		temp = ADC_Read(0);   // Get 10-bit results of AD conversion
	CLRF       FARG_ADC_Read_channel+0
	CALL       _ADC_Read+0
	MOVF       R0+0, 0
	MOVWF      _temp+0
	MOVF       R0+1, 0
	MOVWF      _temp+1
	CLRF       _temp+2
	CLRF       _temp+3
;digital_voltmeter.c,46 :: 		temp=temp*5000/1023;   //Convert ADC value to mV
	MOVF       _temp+0, 0
	MOVWF      R0+0
	MOVF       _temp+1, 0
	MOVWF      R0+1
	MOVF       _temp+2, 0
	MOVWF      R0+2
	MOVF       _temp+3, 0
	MOVWF      R0+3
	MOVLW      136
	MOVWF      R4+0
	MOVLW      19
	MOVWF      R4+1
	CLRF       R4+2
	CLRF       R4+3
	CALL       _Mul_32x32_U+0
	MOVLW      255
	MOVWF      R4+0
	MOVLW      3
	MOVWF      R4+1
	CLRF       R4+2
	CLRF       R4+3
	CALL       _Div_32x32_U+0
	MOVF       R0+0, 0
	MOVWF      _temp+0
	MOVF       R0+1, 0
	MOVWF      _temp+1
	MOVF       R0+2, 0
	MOVWF      _temp+2
	MOVF       R0+3, 0
	MOVWF      _temp+3
;digital_voltmeter.c,50 :: 		digit[0]=(temp/1000)+48;
	MOVLW      232
	MOVWF      R4+0
	MOVLW      3
	MOVWF      R4+1
	CLRF       R4+2
	CLRF       R4+3
	CALL       _Div_32x32_U+0
	MOVLW      48
	ADDWF      R0+0, 0
	MOVWF      _digit+0
;digital_voltmeter.c,51 :: 		digit[2]=((temp%1000)/100)+48;
	MOVLW      232
	MOVWF      R4+0
	MOVLW      3
	MOVWF      R4+1
	CLRF       R4+2
	CLRF       R4+3
	MOVF       _temp+0, 0
	MOVWF      R0+0
	MOVF       _temp+1, 0
	MOVWF      R0+1
	MOVF       _temp+2, 0
	MOVWF      R0+2
	MOVF       _temp+3, 0
	MOVWF      R0+3
	CALL       _Div_32x32_U+0
	MOVF       R8+0, 0
	MOVWF      R0+0
	MOVF       R8+1, 0
	MOVWF      R0+1
	MOVF       R8+2, 0
	MOVWF      R0+2
	MOVF       R8+3, 0
	MOVWF      R0+3
	MOVF       R0+0, 0
	MOVWF      FLOC__main+0
	MOVF       R0+1, 0
	MOVWF      FLOC__main+1
	MOVF       R0+2, 0
	MOVWF      FLOC__main+2
	MOVF       R0+3, 0
	MOVWF      FLOC__main+3
	MOVLW      100
	MOVWF      R4+0
	CLRF       R4+1
	CLRF       R4+2
	CLRF       R4+3
	MOVF       FLOC__main+0, 0
	MOVWF      R0+0
	MOVF       FLOC__main+1, 0
	MOVWF      R0+1
	MOVF       FLOC__main+2, 0
	MOVWF      R0+2
	MOVF       FLOC__main+3, 0
	MOVWF      R0+3
	CALL       _Div_32x32_U+0
	MOVLW      48
	ADDWF      R0+0, 0
	MOVWF      _digit+2
;digital_voltmeter.c,52 :: 		digit[3]=(((temp%1000)%100)/10)+48;
	MOVLW      100
	MOVWF      R4+0
	CLRF       R4+1
	CLRF       R4+2
	CLRF       R4+3
	MOVF       FLOC__main+0, 0
	MOVWF      R0+0
	MOVF       FLOC__main+1, 0
	MOVWF      R0+1
	MOVF       FLOC__main+2, 0
	MOVWF      R0+2
	MOVF       FLOC__main+3, 0
	MOVWF      R0+3
	CALL       _Div_32x32_U+0
	MOVF       R8+0, 0
	MOVWF      R0+0
	MOVF       R8+1, 0
	MOVWF      R0+1
	MOVF       R8+2, 0
	MOVWF      R0+2
	MOVF       R8+3, 0
	MOVWF      R0+3
	MOVF       R0+0, 0
	MOVWF      FLOC__main+0
	MOVF       R0+1, 0
	MOVWF      FLOC__main+1
	MOVF       R0+2, 0
	MOVWF      FLOC__main+2
	MOVF       R0+3, 0
	MOVWF      FLOC__main+3
	MOVLW      10
	MOVWF      R4+0
	CLRF       R4+1
	CLRF       R4+2
	CLRF       R4+3
	MOVF       FLOC__main+0, 0
	MOVWF      R0+0
	MOVF       FLOC__main+1, 0
	MOVWF      R0+1
	MOVF       FLOC__main+2, 0
	MOVWF      R0+2
	MOVF       FLOC__main+3, 0
	MOVWF      R0+3
	CALL       _Div_32x32_U+0
	MOVLW      48
	ADDWF      R0+0, 0
	MOVWF      _digit+3
;digital_voltmeter.c,53 :: 		digit[4]=(((temp%1000)%100)%10)+48;
	MOVLW      10
	MOVWF      R4+0
	CLRF       R4+1
	CLRF       R4+2
	CLRF       R4+3
	MOVF       FLOC__main+0, 0
	MOVWF      R0+0
	MOVF       FLOC__main+1, 0
	MOVWF      R0+1
	MOVF       FLOC__main+2, 0
	MOVWF      R0+2
	MOVF       FLOC__main+3, 0
	MOVWF      R0+3
	CALL       _Div_32x32_U+0
	MOVF       R8+0, 0
	MOVWF      R0+0
	MOVF       R8+1, 0
	MOVWF      R0+1
	MOVF       R8+2, 0
	MOVWF      R0+2
	MOVF       R8+3, 0
	MOVWF      R0+3
	MOVLW      48
	ADDWF      R0+0, 0
	MOVWF      _digit+4
;digital_voltmeter.c,55 :: 		LCD_Cmd(_LCD_CLEAR);
	MOVLW      1
	MOVWF      FARG_Lcd_Cmd_out_char+0
	CALL       _Lcd_Cmd+0
;digital_voltmeter.c,56 :: 		LCD_Out(1,1,digit);
	MOVLW      1
	MOVWF      FARG_Lcd_Out_row+0
	MOVLW      1
	MOVWF      FARG_Lcd_Out_column+0
	MOVLW      _digit+0
	MOVWF      FARG_Lcd_Out_text+0
	CALL       _Lcd_Out+0
;digital_voltmeter.c,59 :: 		Delay_ms(500);
	MOVLW      3
	MOVWF      R11+0
	MOVLW      138
	MOVWF      R12+0
	MOVLW      85
	MOVWF      R13+0
L_main4:
	DECFSZ     R13+0, 1
	GOTO       L_main4
	DECFSZ     R12+0, 1
	GOTO       L_main4
	DECFSZ     R11+0, 1
	GOTO       L_main4
	NOP
	NOP
;digital_voltmeter.c,61 :: 		} while(1);
	GOTO       L_main1
;digital_voltmeter.c,62 :: 		}
L_end_main:
	GOTO       $+0
; end of _main
